; Function Attrs: nounwind uwtable
define void @PMIx_Info_free(ptr noundef captures(address_is_null) %0, i64 noundef %1) local_unnamed_addr #6 {
  %.not.i = icmp eq ptr %0, null
  br i1 %.not.i, label %pmix_bfrops_base_tma_info_free.exit, label %.preheader.i

.preheader.i:                                     ; preds = %2
  %.not2.i = icmp eq i64 %1, 0
  br i1 %.not2.i, label %._crit_edge.i, label %.lr.ph.i

._crit_edge.i:                                    ; preds = %pmix_bfrops_base_tma_info_destruct.exit.i, %.preheader.i
  tail call void @free(ptr noundef nonnull %0) #44
  br label %pmix_bfrops_base_tma_info_free.exit

.lr.ph.i:                                         ; preds = %.preheader.i, %pmix_bfrops_base_tma_info_destruct.exit.i
  %.01.i = phi i64 [ %8, %pmix_bfrops_base_tma_info_destruct.exit.i ], [ 0, %.preheader.i ]
  %3 = getelementptr inbounds nuw %struct.pmix_info, ptr %0, i64 %.01.i
  %4 = getelementptr i8, ptr %3, i64 512
  %.val.i.i = load i32, ptr %4, align 8, !tbaa !80
  %5 = and i32 %.val.i.i, 16
  %.not.i.i = icmp eq i32 %5, 0
  br i1 %.not.i.i, label %6, label %pmix_bfrops_base_tma_info_destruct.exit.i

6:                                                ; preds = %.lr.ph.i
  %7 = getelementptr inbounds nuw i8, ptr %3, i64 520
  tail call fastcc void @pmix_bfrops_base_tma_value_destruct(ptr noundef nonnull %7)
  br label %pmix_bfrops_base_tma_info_destruct.exit.i

pmix_bfrops_base_tma_info_destruct.exit.i:        ; preds = %6, %.lr.ph.i
  %8 = add nuw i64 %.01.i, 1
  %exitcond.not.i = icmp eq i64 %8, %1
  br i1 %exitcond.not.i, label %._crit_edge.i, label %.lr.ph.i, !llvm.loop !83

pmix_bfrops_base_tma_info_free.exit:              ; preds = %2, %._crit_edge.i
  ret void
}